target datalayout = "e-m:e-p270:32:32-p271:32:32-p272:64:64-i64:64-i128:128-f80:128-n8:16:32:64-S128"
target triple = "x86_64-pc-linux-gnu"

@proto_register_fcsp.ett = internal global [1 x ptr] [ptr @ett_fcsp], align 8
@.str.57 = private unnamed_addr constant [32 x i8] c"Fibre Channel Security Protocol\00", align 1
@.str.58 = private unnamed_addr constant [6 x i8] c"FC-SP\00", align 1
@.str.59 = private unnamed_addr constant [5 x i8] c"fcsp\00", align 1
@proto_fcsp = internal global i32 0, align 4

; Function Attrs: null_pointer_is_valid sspstrong uwtable
define hidden void @proto_register_fcsp() #0 {
  %1 = alloca ptr, align 8
  call void @llvm.lifetime.start.p0(i64 8, ptr %1) #4
  %2 = call i32 @proto_register_protocol(ptr noundef @.str.57, ptr noundef @.str.58, ptr noundef @.str.59)
  store i32 %2, ptr @proto_fcsp, align 4
  %3 = load i32, ptr @proto_fcsp, align 4
  %4 = call ptr @register_dissector(ptr noundef @.str.59, ptr noundef @dissect_fcsp, i32 noundef %3)
  %5 = load i32, ptr @proto_fcsp, align 4
  call void @proto_register_field_array(i32 noundef %5, ptr noundef @proto_register_fcsp.hf, i32 noundef 28)
  call void @proto_register_subtree_array(ptr noundef @proto_register_fcsp.ett, i32 noundef 1)
  %6 = load i32, ptr @proto_fcsp, align 4
  %7 = call ptr @expert_register_protocol(i32 noundef %6)
  store ptr %7, ptr %1, align 8
  %8 = load ptr, ptr %1, align 8
  call void @expert_register_field_array(ptr noundef %8, ptr noundef @proto_register_fcsp.ei, i32 noundef 1)
  call void @llvm.lifetime.end.p0(i64 8, ptr %1) #4
  ret void
}